target datalayout = "e-m:e-p270:32:32-p271:32:32-p272:64:64-i64:64-i128:128-f80:128-n8:16:32:64-S128"
target triple = "x86_64-pc-linux-gnu"

%"class.zxing::Ref" = type { ptr }
%"class.zxing::Binarizer" = type { %"class.zxing::Counted.base", %"class.zxing::Ref", i8, i8, i32, i32, i32, i32, %"class.zxing::Ref.0", %"class.zxing::Ref.0", %"class.zxing::Ref.0" }
%"class.zxing::Counted.base" = type <{ ptr, i32 }>
%"class.zxing::Ref.0" = type { ptr }

; Function Attrs: mustprogress nounwind uwtable
define hidden void @_ZN5zxing19FastWindowBinarizer15calcBlockTotalsEPiS1_ii(ptr noundef nonnull align 8 dereferenceable(184) %0, ptr noundef %1, ptr noundef %2, i32 noundef %3, i32 noundef %4) #2 align 2 {
  %6 = alloca ptr, align 8
  %7 = alloca ptr, align 8
  %8 = alloca ptr, align 8
  %9 = alloca i32, align 4
  %10 = alloca i32, align 4
  %11 = alloca i32, align 4
  %12 = alloca i32, align 4
  %13 = alloca i32, align 4
  %14 = alloca i32, align 4
  %15 = alloca i32, align 4
  %16 = alloca i32, align 4
  %17 = alloca i32, align 4
  %18 = alloca i32, align 4
  store ptr %0, ptr %6, align 8, !tbaa !3
  store ptr %1, ptr %7, align 8, !tbaa !60
  store ptr %2, ptr %8, align 8, !tbaa !60
  store i32 %3, ptr %9, align 4, !tbaa !22
  store i32 %4, ptr %10, align 4, !tbaa !22
  %19 = load ptr, ptr %6, align 8
  call void @llvm.lifetime.start.p0(i64 4, ptr %11) #9
  store i32 0, ptr %11, align 4, !tbaa !22
  br label %20

20:                                               ; preds = %85, %5
  %21 = load i32, ptr %11, align 4, !tbaa !22
  %22 = load i32, ptr %10, align 4, !tbaa !22
  %23 = icmp slt i32 %21, %22
  br i1 %23, label %25, label %24

24:                                               ; preds = %20
  store i32 2, ptr %12, align 4
  call void @llvm.lifetime.end.p0(i64 4, ptr %11) #9
  br label %88

25:                                               ; preds = %20
  call void @llvm.lifetime.start.p0(i64 4, ptr %13) #9
  %26 = load i32, ptr %11, align 4, !tbaa !22
  %27 = add nsw i32 %26, 1
  %28 = mul nsw i32 %27, 6
  store i32 %28, ptr %13, align 4, !tbaa !22
  call void @llvm.lifetime.start.p0(i64 4, ptr %14) #9
  store i32 0, ptr %14, align 4, !tbaa !22
  br label %29

29:                                               ; preds = %81, %25
  %30 = load i32, ptr %14, align 4, !tbaa !22
  %31 = load i32, ptr %9, align 4, !tbaa !22
  %32 = icmp slt i32 %30, %31
  br i1 %32, label %34, label %33

33:                                               ; preds = %29
  store i32 5, ptr %12, align 4
  call void @llvm.lifetime.end.p0(i64 4, ptr %14) #9
  br label %84

34:                                               ; preds = %29
  call void @llvm.lifetime.start.p0(i64 4, ptr %15) #9
  store i32 0, ptr %15, align 4, !tbaa !22
  call void @llvm.lifetime.start.p0(i64 4, ptr %16) #9
  %35 = load i32, ptr %11, align 4, !tbaa !22
  %36 = mul nsw i32 %35, 6
  store i32 %36, ptr %16, align 4, !tbaa !22
  br label %37

37:                                               ; preds = %68, %34
  %38 = load i32, ptr %16, align 4, !tbaa !22
  %39 = load i32, ptr %13, align 4, !tbaa !22
  %40 = icmp slt i32 %38, %39
  br i1 %40, label %42, label %41

41:                                               ; preds = %37
  store i32 8, ptr %12, align 4
  call void @llvm.lifetime.end.p0(i64 4, ptr %16) #9
  br label %71

42:                                               ; preds = %37
  call void @llvm.lifetime.start.p0(i64 4, ptr %17) #9
  %43 = load i32, ptr %16, align 4, !tbaa !22
  %44 = getelementptr inbounds nuw %"class.zxing::Binarizer", ptr %19, i32 0, i32 6
  %45 = load i32, ptr %44, align 4, !tbaa !12
  %46 = mul nsw i32 %43, %45
  %47 = load i32, ptr %14, align 4, !tbaa !22
  %48 = mul nsw i32 %47, 6
  %49 = add nsw i32 %46, %48
  store i32 %49, ptr %17, align 4, !tbaa !22
  call void @llvm.lifetime.start.p0(i64 4, ptr %18) #9
  %50 = load i32, ptr %17, align 4, !tbaa !22
  %51 = add nsw i32 %50, 6
  store i32 %51, ptr %18, align 4, !tbaa !22
  br label %52

52:                                               ; preds = %64, %42
  %53 = load i32, ptr %17, align 4, !tbaa !22
  %54 = load i32, ptr %18, align 4, !tbaa !22
  %55 = icmp slt i32 %53, %54
  br i1 %55, label %56, label %67

56:                                               ; preds = %52
  %57 = load ptr, ptr %7, align 8, !tbaa !60
  %58 = load i32, ptr %17, align 4, !tbaa !22
  %59 = sext i32 %58 to i64
  %60 = getelementptr inbounds i32, ptr %57, i64 %59
  %61 = load i32, ptr %60, align 4, !tbaa !22
  %62 = load i32, ptr %15, align 4, !tbaa !22
  %63 = add nsw i32 %62, %61
  store i32 %63, ptr %15, align 4, !tbaa !22
  br label %64

64:                                               ; preds = %56
  %65 = load i32, ptr %17, align 4, !tbaa !22
  %66 = add nsw i32 %65, 1
  store i32 %66, ptr %17, align 4, !tbaa !22
  br label %52, !llvm.loop !61

67:                                               ; preds = %52
  call void @llvm.lifetime.end.p0(i64 4, ptr %18) #9
  call void @llvm.lifetime.end.p0(i64 4, ptr %17) #9
  br label %68

68:                                               ; preds = %67
  %69 = load i32, ptr %16, align 4, !tbaa !22
  %70 = add nsw i32 %69, 1
  store i32 %70, ptr %16, align 4, !tbaa !22
  br label %37, !llvm.loop !63

71:                                               ; preds = %41
  %72 = load i32, ptr %15, align 4, !tbaa !22
  %73 = load ptr, ptr %8, align 8, !tbaa !60
  %74 = load i32, ptr %11, align 4, !tbaa !22
  %75 = load i32, ptr %9, align 4, !tbaa !22
  %76 = mul nsw i32 %74, %75
  %77 = load i32, ptr %14, align 4, !tbaa !22
  %78 = add nsw i32 %76, %77
  %79 = sext i32 %78 to i64
  %80 = getelementptr inbounds i32, ptr %73, i64 %79
  store i32 %72, ptr %80, align 4, !tbaa !22
  call void @llvm.lifetime.end.p0(i64 4, ptr %15) #9
  br label %81

81:                                               ; preds = %71
  %82 = load i32, ptr %14, align 4, !tbaa !22
  %83 = add nsw i32 %82, 1
  store i32 %83, ptr %14, align 4, !tbaa !22
  br label %29, !llvm.loop !64

84:                                               ; preds = %33
  call void @llvm.lifetime.end.p0(i64 4, ptr %13) #9
  br label %85

85:                                               ; preds = %84
  %86 = load i32, ptr %11, align 4, !tbaa !22
  %87 = add nsw i32 %86, 1
  store i32 %87, ptr %11, align 4, !tbaa !22
  br label %20, !llvm.loop !65

88:                                               ; preds = %24
  ret void
}