; Function Attrs: mustprogress nofree norecurse nosync nounwind memory(argmem: readwrite) uwtable
define hidden void @_ZN5zxing19FastWindowBinarizer15calcBlockTotalsEPiS1_ii(ptr noundef nonnull readonly align 8 captures(none) dereferenceable(184) %0, ptr noundef readonly captures(none) %1, ptr noundef writeonly captures(none) %2, i32 noundef %3, i32 noundef %4) local_unnamed_addr #7 align 2 {
  %6 = icmp sgt i32 %4, 0
  br i1 %6, label %.lr.ph, label %._crit_edge

.lr.ph:                                           ; preds = %5
  %7 = icmp sgt i32 %3, 0
  %8 = getelementptr inbounds nuw i8, ptr %0, i64 36
  br i1 %7, label %.lr.ph36.us.preheader, label %._crit_edge

.lr.ph36.us.preheader:                            ; preds = %.lr.ph
  %wide.trip.count60 = zext nneg i32 %4 to i64
  %wide.trip.count = zext nneg i32 %3 to i64
  br label %.lr.ph.us.us.preheader

.lr.ph.us.us.preheader:                           ; preds = %..loopexit_crit_edge.us, %.lr.ph36.us.preheader
  %indvars.iv57 = phi i64 [ 0, %.lr.ph36.us.preheader ], [ %indvars.iv.next58, %..loopexit_crit_edge.us ]
  %indvars.iv43 = phi i32 [ 0, %.lr.ph36.us.preheader ], [ %indvars.iv.next44, %..loopexit_crit_edge.us ]
  %9 = sext i32 %indvars.iv43 to i64
  %indvars.iv.next58 = add nuw nsw i64 %indvars.iv57, 1
  %10 = mul nuw nsw i64 %indvars.iv.next58, 6
  %11 = trunc i64 %indvars.iv57 to i32
  %12 = mul i32 %3, %11
  %13 = zext i32 %12 to i64
  %invariant.gep = getelementptr inbounds nuw i32, ptr %2, i64 %13
  br label %.lr.ph.us.us

..loopexit_crit_edge.us:                          ; preds = %._crit_edge.us.us
  %indvars.iv.next44 = add i32 %indvars.iv43, 6
  %exitcond61.not = icmp eq i64 %indvars.iv.next58, %wide.trip.count60
  br i1 %exitcond61.not, label %._crit_edge, label %.lr.ph.us.us.preheader, !llvm.loop !51

.lr.ph.us.us:                                     ; preds = %.lr.ph.us.us.preheader, %._crit_edge.us.us
  %indvars.iv53 = phi i64 [ 0, %.lr.ph.us.us.preheader ], [ %indvars.iv.next54, %._crit_edge.us.us ]
  %indvars.iv = phi i32 [ 0, %.lr.ph.us.us.preheader ], [ %indvars.iv.next, %._crit_edge.us.us ]
  %14 = load i32, ptr %8, align 4, !tbaa !16
  %15 = mul i32 %indvars.iv43, %14
  %16 = add i32 %indvars.iv, %15
  %17 = trunc i64 %indvars.iv53 to i32
  %18 = mul i32 %17, 6
  %19 = add i32 %18, 6
  br label %20

20:                                               ; preds = %25, %.lr.ph.us.us
  %indvars.iv50 = phi i64 [ %indvars.iv.next51, %25 ], [ %9, %.lr.ph.us.us ]
  %indvars.iv45 = phi i32 [ %indvars.iv.next46, %25 ], [ %16, %.lr.ph.us.us ]
  %.02732.us.us = phi i32 [ %30, %25 ], [ 0, %.lr.ph.us.us ]
  %21 = sext i32 %indvars.iv45 to i64
  %22 = trunc i64 %indvars.iv50 to i32
  %23 = mul i32 %14, %22
  %.reass.us.us = add i32 %23, %19
  %24 = sext i32 %.reass.us.us to i64
  br label %27

25:                                               ; preds = %27
  %indvars.iv.next51 = add nuw nsw i64 %indvars.iv50, 1
  %26 = icmp samesign ult i64 %indvars.iv.next51, %10
  %indvars.iv.next46 = add i32 %indvars.iv45, %14
  br i1 %26, label %20, label %._crit_edge.us.us, !llvm.loop !53

27:                                               ; preds = %27, %20
  %indvars.iv47 = phi i64 [ %indvars.iv.next48, %27 ], [ %21, %20 ]
  %.130.us.us = phi i32 [ %30, %27 ], [ %.02732.us.us, %20 ]
  %28 = getelementptr inbounds i32, ptr %1, i64 %indvars.iv47
  %29 = load i32, ptr %28, align 4, !tbaa !54
  %30 = add nsw i32 %29, %.130.us.us
  %indvars.iv.next48 = add nsw i64 %indvars.iv47, 1
  %31 = icmp slt i64 %indvars.iv.next48, %24
  br i1 %31, label %27, label %25, !llvm.loop !55

._crit_edge.us.us:                                ; preds = %25
  %gep = getelementptr inbounds nuw i32, ptr %invariant.gep, i64 %indvars.iv53
  store i32 %30, ptr %gep, align 4, !tbaa !54
  %indvars.iv.next54 = add nuw nsw i64 %indvars.iv53, 1
  %indvars.iv.next = add nuw i32 %indvars.iv, 6
  %exitcond.not = icmp eq i64 %indvars.iv.next54, %wide.trip.count
  br i1 %exitcond.not, label %..loopexit_crit_edge.us, label %.lr.ph.us.us, !llvm.loop !56

._crit_edge:                                      ; preds = %..loopexit_crit_edge.us, %.lr.ph, %5
  ret void
}